; Function Attrs: mustprogress uwtable
define dso_local void @_ZN4Luau7CodeGen3A6413IrLoweringA6417jumpOrFallthroughERNS0_7IrBlockERKS3_(ptr noundef nonnull readonly align 8 captures(none) dereferenceable(1497) %0, ptr noundef nonnull align 4 dereferenceable(32) %1, ptr noundef nonnull readonly align 4 captures(none) dereferenceable(32) %2) local_unnamed_addr #0 align 2 {
  %4 = getelementptr inbounds nuw i8, ptr %1, i64 4
  %5 = load i32, ptr %4, align 4, !tbaa !74
  %6 = getelementptr inbounds nuw i8, ptr %2, i64 4
  %7 = load i32, ptr %6, align 4, !tbaa !74
  %8 = icmp eq i32 %5, %7
  br i1 %8, label %12, label %9

9:                                                ; preds = %3
  %10 = load ptr, ptr %0, align 8, !tbaa !63
  %11 = getelementptr inbounds nuw i8, ptr %1, i64 24
  tail call void @_ZN4Luau7CodeGen3A6418AssemblyBuilderA641bERNS0_5LabelE(ptr noundef nonnull align 8 dereferenceable(176) %10, ptr noundef nonnull align 4 dereferenceable(8) %11)
  br label %12

12:                                               ; preds = %9, %3
  ret void
}